target datalayout = "e-m:e-p270:32:32-p271:32:32-p272:64:64-i64:64-i128:128-f80:128-n8:16:32:64-S128"
target triple = "x86_64-pc-linux-gnu"

%struct.pref_module = type { ptr, ptr, ptr, ptr, ptr, ptr, ptr, i32, i32, i32, i32, i32 }
%struct._GList = type { ptr, ptr, ptr }

; Function Attrs: mustprogress uwtable
define internal noundef i32 @_ZL24module_prefs_clean_stashP11pref_modulePv(ptr noundef %0, ptr noundef %1) #0 {
  %3 = alloca i32, align 4
  %4 = alloca ptr, align 8
  %5 = alloca ptr, align 8
  %6 = alloca ptr, align 8
  %7 = alloca ptr, align 8
  store ptr %0, ptr %4, align 8
  store ptr %1, ptr %5, align 8
  %8 = load ptr, ptr %4, align 8
  %9 = getelementptr inbounds %struct.pref_module, ptr %8, i32 0, i32 4
  %10 = load ptr, ptr %9, align 8
  store ptr %10, ptr %6, align 8
  br label %11

11:                                               ; preds = %50, %2
  %12 = load ptr, ptr %6, align 8
  %13 = icmp ne ptr %12, null
  br i1 %13, label %14, label %19

14:                                               ; preds = %11
  %15 = load ptr, ptr %6, align 8
  %16 = getelementptr inbounds %struct._GList, ptr %15, i32 0, i32 0
  %17 = load ptr, ptr %16, align 8
  %18 = icmp ne ptr %17, null
  br label %19

19:                                               ; preds = %14, %11
  %20 = phi i1 [ false, %11 ], [ %18, %14 ]
  br i1 %20, label %21, label %52

21:                                               ; preds = %19
  %22 = load ptr, ptr %6, align 8
  %23 = icmp ne ptr %22, null
  br i1 %23, label %24, label %28

24:                                               ; preds = %21
  %25 = load ptr, ptr %6, align 8
  %26 = getelementptr inbounds %struct._GList, ptr %25, i32 0, i32 0
  %27 = load ptr, ptr %26, align 8
  br label %29

28:                                               ; preds = %21
  br label %29

29:                                               ; preds = %28, %24
  %30 = phi ptr [ %27, %24 ], [ null, %28 ]
  store ptr %30, ptr %7, align 8
  %31 = load ptr, ptr %7, align 8
  %32 = call i32 @prefs_get_type(ptr noundef %31)
  %33 = icmp eq i32 %32, 1024
  br i1 %33, label %38, label %34

34:                                               ; preds = %29
  %35 = load ptr, ptr %7, align 8
  %36 = call i32 @prefs_get_type(ptr noundef %35)
  %37 = icmp eq i32 %36, 32
  br i1 %37, label %38, label %39

38:                                               ; preds = %34, %29
  br label %42

39:                                               ; preds = %34
  %40 = load ptr, ptr %7, align 8
  %41 = call i32 @pref_clean_stash(ptr noundef %40, ptr noundef null)
  br label %42

42:                                               ; preds = %39, %38
  %43 = load ptr, ptr %6, align 8
  %44 = icmp ne ptr %43, null
  br i1 %44, label %45, label %49

45:                                               ; preds = %42
  %46 = load ptr, ptr %6, align 8
  %47 = getelementptr inbounds %struct._GList, ptr %46, i32 0, i32 1
  %48 = load ptr, ptr %47, align 8
  br label %50

49:                                               ; preds = %42
  br label %50

50:                                               ; preds = %49, %45
  %51 = phi ptr [ %48, %45 ], [ null, %49 ]
  store ptr %51, ptr %6, align 8
  br label %11, !llvm.loop !4

52:                                               ; preds = %19
  %53 = load ptr, ptr %4, align 8
  %54 = call i32 @prefs_module_has_submodules(ptr noundef %53)
  %55 = icmp ne i32 %54, 0
  br i1 %55, label %56, label %59

56:                                               ; preds = %52
  %57 = load ptr, ptr %4, align 8
  %58 = call i32 @prefs_modules_foreach_submodules(ptr noundef %57, ptr noundef @_ZL24module_prefs_clean_stashP11pref_modulePv, ptr noundef null)
  store i32 %58, ptr %3, align 4
  br label %60

59:                                               ; preds = %52
  store i32 0, ptr %3, align 4
  br label %60

60:                                               ; preds = %59, %56
  %61 = load i32, ptr %3, align 4
  ret i32 %61
}