; Function Attrs: mustprogress uwtable
define internal noundef i32 @_ZL24module_prefs_clean_stashP11pref_modulePv(ptr noundef %0, ptr nocapture readnone %1) #0 {
  %3 = getelementptr inbounds i8, ptr %0, i64 32
  %.01216 = load ptr, ptr %3, align 8
  %.not17 = icmp eq ptr %.01216, null
  br i1 %.not17, label %.critedge, label %.lr.ph

.lr.ph:                                           ; preds = %2, %13
  %.01218 = phi ptr [ %.012, %13 ], [ %.01216, %2 ]
  %4 = load ptr, ptr %.01218, align 8
  %.not14 = icmp eq ptr %4, null
  br i1 %.not14, label %.critedge, label %5

5:                                                ; preds = %.lr.ph
  %6 = tail call i32 @prefs_get_type(ptr noundef nonnull %4)
  %7 = icmp eq i32 %6, 1024
  br i1 %7, label %13, label %8

8:                                                ; preds = %5
  %9 = tail call i32 @prefs_get_type(ptr noundef nonnull %4)
  %10 = icmp eq i32 %9, 32
  br i1 %10, label %13, label %11

11:                                               ; preds = %8
  %12 = tail call i32 @pref_clean_stash(ptr noundef nonnull %4, ptr noundef null)
  br label %13

13:                                               ; preds = %5, %8, %11
  %14 = getelementptr inbounds i8, ptr %.01218, i64 8
  %.012 = load ptr, ptr %14, align 8
  %.not = icmp eq ptr %.012, null
  br i1 %.not, label %.critedge, label %.lr.ph, !llvm.loop !18

.critedge:                                        ; preds = %.lr.ph, %13, %2
  %15 = tail call i32 @prefs_module_has_submodules(ptr noundef %0)
  %.not15 = icmp eq i32 %15, 0
  br i1 %.not15, label %18, label %16

16:                                               ; preds = %.critedge
  %17 = tail call i32 @prefs_modules_foreach_submodules(ptr noundef %0, ptr noundef nonnull @_ZL24module_prefs_clean_stashP11pref_modulePv, ptr noundef null)
  br label %18

18:                                               ; preds = %.critedge, %16
  %.0 = phi i32 [ %17, %16 ], [ 0, %.critedge ]
  ret i32 %.0
}